target datalayout = "e-m:e-p270:32:32-p271:32:32-p272:64:64-i64:64-i128:128-f80:128-n8:16:32:64-S128"
target triple = "x86_64-pc-linux-gnu"

%struct.signals = type { [8 x i8], i32 }

@.str.35 = private unnamed_addr constant [6 x i8] c"SIG%s\00", align 1
@.str.36 = private unnamed_addr constant [6 x i8] c"SIG%u\00", align 1

; Function Attrs: nounwind sspstrong uwtable
define internal ptr @signo2signm(i32 noundef %0) #1 {
  %2 = alloca ptr, align 8
  %3 = alloca i32, align 4
  %4 = alloca ptr, align 8
  %5 = alloca i32, align 4
  store i32 %0, ptr %3, align 4, !tbaa !7
  call void @llvm.lifetime.start.p0(i64 8, ptr %4) #22
  store ptr @siglist, ptr %4, align 8, !tbaa !11
  br label %6

6:                                                ; preds = %20, %1
  %7 = load ptr, ptr %4, align 8, !tbaa !11
  %8 = icmp ult ptr %7, getelementptr (%struct.signals, ptr @siglist, i64 34)
  br i1 %8, label %9, label %23

9:                                                ; preds = %6
  %10 = load ptr, ptr %4, align 8, !tbaa !11
  %11 = getelementptr inbounds nuw %struct.signals, ptr %10, i32 0, i32 1
  %12 = load i32, ptr %11, align 4, !tbaa !14
  %13 = load i32, ptr %3, align 4, !tbaa !7
  %14 = icmp eq i32 %12, %13
  br i1 %14, label %15, label %19

15:                                               ; preds = %9
  %16 = load ptr, ptr %4, align 8, !tbaa !11
  %17 = getelementptr inbounds nuw %struct.signals, ptr %16, i32 0, i32 0
  %18 = getelementptr inbounds [8 x i8], ptr %17, i64 0, i64 0
  store ptr %18, ptr %2, align 8
  store i32 1, ptr %5, align 4
  br label %24

19:                                               ; preds = %9
  br label %20

20:                                               ; preds = %19
  %21 = load ptr, ptr %4, align 8, !tbaa !11
  %22 = getelementptr %struct.signals, ptr %21, i32 1
  store ptr %22, ptr %4, align 8, !tbaa !11
  br label %6, !llvm.loop !16

23:                                               ; preds = %6
  store ptr null, ptr %2, align 8
  store i32 1, ptr %5, align 4
  br label %24

24:                                               ; preds = %23, %15
  call void @llvm.lifetime.end.p0(i64 8, ptr %4) #22
  %25 = load ptr, ptr %2, align 8
  ret ptr %25
}

; Function Attrs: nounwind sspstrong uwtable
define internal i64 @rb_signo2signm(i32 noundef %0) #1 {
  %2 = alloca i64, align 8
  %3 = alloca i32, align 4
  %4 = alloca ptr, align 8
  %5 = alloca i32, align 4
  store i32 %0, ptr %3, align 4, !tbaa !7
  call void @llvm.lifetime.start.p0(i64 8, ptr %4) #22
  %6 = load i32, ptr %3, align 4, !tbaa !7
  %7 = call ptr @signo2signm(i32 noundef %6)
  store ptr %7, ptr %4, align 8, !tbaa !18
  %8 = load ptr, ptr %4, align 8, !tbaa !18
  %9 = icmp ne ptr %8, null
  br i1 %9, label %10, label %13

10:                                               ; preds = %1
  %11 = load ptr, ptr %4, align 8, !tbaa !18
  %12 = call i64 (ptr, ...) @rb_sprintf(ptr noundef @.str.35, ptr noundef %11)
  store i64 %12, ptr %2, align 8
  store i32 1, ptr %5, align 4
  br label %16

13:                                               ; preds = %1
  %14 = load i32, ptr %3, align 4, !tbaa !7
  %15 = call i64 (ptr, ...) @rb_sprintf(ptr noundef @.str.36, i32 noundef %14)
  store i64 %15, ptr %2, align 8
  store i32 1, ptr %5, align 4
  br label %16

16:                                               ; preds = %13, %10
  call void @llvm.lifetime.end.p0(i64 8, ptr %4) #22
  %17 = load i64, ptr %2, align 8
  ret i64 %17
}