; Function Attrs: nounwind sspstrong uwtable
define internal fastcc i64 @rb_signo2signm(i32 noundef %0) unnamed_addr #1 {
  br label %2

2:                                                ; preds = %6, %1
  %.06.i = phi ptr [ @siglist, %1 ], [ %7, %6 ]
  %3 = getelementptr inbounds nuw i8, ptr %.06.i, i64 8
  %4 = load i32, ptr %3, align 4, !tbaa !7
  %5 = icmp eq i32 %4, %0
  br i1 %5, label %signo2signm.exit, label %6

6:                                                ; preds = %2
  %7 = getelementptr i8, ptr %.06.i, i64 12
  %8 = icmp ult ptr %7, getelementptr inbounds nuw (i8, ptr @siglist, i64 408)
  br i1 %8, label %2, label %10, !llvm.loop !12

signo2signm.exit:                                 ; preds = %2
  %9 = tail call i64 (ptr, ...) @rb_sprintf(ptr noundef nonnull @.str.35, ptr noundef nonnull %.06.i) #17
  br label %12

10:                                               ; preds = %6
  %11 = tail call i64 (ptr, ...) @rb_sprintf(ptr noundef nonnull @.str.36, i32 noundef %0) #17
  br label %12

12:                                               ; preds = %10, %signo2signm.exit
  %.0 = phi i64 [ %9, %signo2signm.exit ], [ %11, %10 ]
  ret i64 %.0
}